; Function Attrs: mustprogress nounwind uwtable
define dso_local void @_ZN4llvm9symbolize12MarkupParser5flushEv(ptr noundef nonnull align 8 dereferenceable(240) %0) local_unnamed_addr #0 align 2 {
  %2 = getelementptr inbounds nuw i8, ptr %0, i64 104
  %3 = load ptr, ptr %2, align 8
  %4 = tail call noundef i64 @_ZNK4llvm15SmallVectorBaseIjE4sizeEv(ptr noundef nonnull align 8 dereferenceable(16) %2) #9
  %.not4.i.i = icmp eq i64 %4, 0
  br i1 %.not4.i.i, label %_ZN4llvm15SmallVectorImplINS_9symbolize10MarkupNodeEE5clearEv.exit, label %.lr.ph.i.preheader.i

.lr.ph.i.preheader.i:                             ; preds = %1
  %5 = getelementptr inbounds %"struct.llvm::symbolize::MarkupNode", ptr %3, i64 %4
  br label %.lr.ph.i.i

.lr.ph.i.i:                                       ; preds = %_ZN4llvm9symbolize10MarkupNodeD2Ev.exit.i.i, %.lr.ph.i.preheader.i
  %.05.i.i = phi ptr [ %6, %_ZN4llvm9symbolize10MarkupNodeD2Ev.exit.i.i ], [ %5, %.lr.ph.i.preheader.i ]
  %6 = getelementptr inbounds i8, ptr %.05.i.i, i64 -96
  %7 = getelementptr inbounds i8, ptr %.05.i.i, i64 -64
  %8 = tail call noundef i64 @_ZNK4llvm15SmallVectorBaseIjE4sizeEv(ptr noundef nonnull align 8 dereferenceable(16) %7) #9
  %9 = load ptr, ptr %7, align 8
  %10 = getelementptr inbounds i8, ptr %.05.i.i, i64 -48
  %11 = icmp eq ptr %9, %10
  br i1 %11, label %_ZN4llvm9symbolize10MarkupNodeD2Ev.exit.i.i, label %12

12:                                               ; preds = %.lr.ph.i.i
  tail call void @free(ptr noundef %9) #9
  br label %_ZN4llvm9symbolize10MarkupNodeD2Ev.exit.i.i

_ZN4llvm9symbolize10MarkupNodeD2Ev.exit.i.i:      ; preds = %12, %.lr.ph.i.i
  %.not.i.i = icmp eq ptr %3, %6
  br i1 %.not.i.i, label %_ZN4llvm15SmallVectorImplINS_9symbolize10MarkupNodeEE5clearEv.exit, label %.lr.ph.i.i, !llvm.loop !4

_ZN4llvm15SmallVectorImplINS_9symbolize10MarkupNodeEE5clearEv.exit: ; preds = %_ZN4llvm9symbolize10MarkupNodeD2Ev.exit.i.i, %1
  %13 = getelementptr inbounds i8, ptr %0, i64 112
  store i32 0, ptr %13, align 8
  %14 = getelementptr inbounds nuw i8, ptr %0, i64 216
  store i64 0, ptr %14, align 8
  %15 = getelementptr inbounds nuw i8, ptr %0, i64 88
  tail call void @llvm.memset.p0.i64(ptr noundef nonnull align 8 dereferenceable(16) %15, i8 0, i64 16, i1 false)
  %16 = getelementptr inbounds nuw i8, ptr %0, i64 56
  %17 = tail call noundef zeroext i1 @_ZNKSt7__cxx1112basic_stringIcSt11char_traitsIcESaIcEE5emptyEv(ptr noundef nonnull align 8 dereferenceable(32) %16) #9
  br i1 %17, label %22, label %18

18:                                               ; preds = %_ZN4llvm15SmallVectorImplINS_9symbolize10MarkupNodeEE5clearEv.exit
  %19 = getelementptr inbounds nuw i8, ptr %0, i64 24
  tail call void @_ZNSt7__cxx1112basic_stringIcSt11char_traitsIcESaIcEE4swapERS4_(ptr noundef nonnull align 8 dereferenceable(32) %19, ptr noundef nonnull align 8 dereferenceable(32) %16) #9
  %20 = tail call noundef ptr @_ZNKSt7__cxx1112basic_stringIcSt11char_traitsIcESaIcEE4dataEv(ptr noundef nonnull align 8 dereferenceable(32) %19) #9
  %21 = tail call noundef i64 @_ZNKSt7__cxx1112basic_stringIcSt11char_traitsIcESaIcEE6lengthEv(ptr noundef nonnull align 8 dereferenceable(32) %19) #9
  tail call void @_ZN4llvm9symbolize12MarkupParser22parseTextOutsideMarkupENS_9StringRefE(ptr noundef nonnull align 8 dereferenceable(240) %0, ptr %20, i64 %21)
  br label %22

22:                                               ; preds = %_ZN4llvm15SmallVectorImplINS_9symbolize10MarkupNodeEE5clearEv.exit, %18
  ret void
}